; Function Attrs: nounwind uwtable
define internal range(i32 0, 2) i32 @test_HDR_set_and_check_implicit_confirm() #1 {
  %1 = tail call fastcc ptr @set_up(ptr noundef nonnull @.str.10)
  %2 = icmp eq ptr %1, null
  br i1 %2, label %28, label %3

3:                                                ; preds = %0
  %4 = getelementptr inbounds nuw i8, ptr %1, i64 24
  %5 = load ptr, ptr %4, align 8, !tbaa !13
  %6 = tail call i32 @ossl_cmp_hdr_has_implicitConfirm(ptr noundef %5) #8
  %7 = icmp ne i32 %6, 0
  %8 = zext i1 %7 to i32
  %9 = tail call i32 @test_false(ptr noundef nonnull @.str.13, i32 noundef 399, ptr noundef nonnull @.str.63, i32 noundef %8) #8
  %.not.i = icmp eq i32 %9, 0
  br i1 %.not.i, label %execute_HDR_set_and_check_implicitConfirm_test.exit, label %10

10:                                               ; preds = %3
  %11 = load ptr, ptr %4, align 8, !tbaa !13
  %12 = tail call i32 @ossl_cmp_hdr_set_implicitConfirm(ptr noundef %11) #8
  %13 = icmp ne i32 %12, 0
  %14 = zext i1 %13 to i32
  %15 = tail call i32 @test_true(ptr noundef nonnull @.str.13, i32 noundef 400, ptr noundef nonnull @.str.64, i32 noundef %14) #8
  %.not3.i = icmp eq i32 %15, 0
  br i1 %.not3.i, label %execute_HDR_set_and_check_implicitConfirm_test.exit, label %16

16:                                               ; preds = %10
  %17 = load ptr, ptr %4, align 8, !tbaa !13
  %18 = tail call i32 @ossl_cmp_hdr_has_implicitConfirm(ptr noundef %17) #8
  %19 = icmp ne i32 %18, 0
  %20 = zext i1 %19 to i32
  %21 = tail call i32 @test_true(ptr noundef nonnull @.str.13, i32 noundef 401, ptr noundef nonnull @.str.63, i32 noundef %20) #8
  %22 = icmp ne i32 %21, 0
  %23 = zext i1 %22 to i32
  br label %execute_HDR_set_and_check_implicitConfirm_test.exit

execute_HDR_set_and_check_implicitConfirm_test.exit: ; preds = %3, %10, %16
  %24 = phi i32 [ 0, %10 ], [ 0, %3 ], [ %23, %16 ]
  %25 = load ptr, ptr %4, align 8, !tbaa !13
  tail call void @OSSL_CMP_PKIHEADER_free(ptr noundef %25) #8
  %26 = getelementptr inbounds nuw i8, ptr %1, i64 16
  %27 = load ptr, ptr %26, align 8, !tbaa !14
  tail call void @OSSL_CMP_CTX_free(ptr noundef %27) #8
  tail call void @CRYPTO_free(ptr noundef nonnull %1, ptr noundef nonnull @.str.13, i32 noundef 28) #8
  br label %28

28:                                               ; preds = %0, %execute_HDR_set_and_check_implicitConfirm_test.exit
  %.05 = phi i32 [ %24, %execute_HDR_set_and_check_implicitConfirm_test.exit ], [ 0, %0 ]
  ret i32 %.05
}